; Function Attrs: mustprogress nounwind uwtable
define internal void @_ZN4node9inspector12_GLOBAL__N_122MainThreadSessionState6CreateEPNS0_19MainThreadInterfaceEb(ptr noalias nocapture writeonly sret(%"class.std::unique_ptr.355") align 8 %agg.result, ptr noundef %thread, i1 noundef zeroext %prevent_shutdown) #3 align 2 {
entry:
  %frombool = zext i1 %prevent_shutdown to i8
  tail call void @llvm.experimental.noalias.scope.decl(metadata !42)
  %call.i = tail call noalias noundef nonnull dereferenceable(24) ptr @_Znwm(i64 noundef 24) #19, !noalias !42
  store ptr %thread, ptr %call.i, align 8, !noalias !42
  %prevent_shutdown_.i.i = getelementptr inbounds i8, ptr %call.i, i64 8
  store i8 %frombool, ptr %prevent_shutdown_.i.i, align 8, !noalias !42
  %session_.i.i = getelementptr inbounds i8, ptr %call.i, i64 16
  store ptr null, ptr %session_.i.i, align 8, !noalias !42
  store ptr %call.i, ptr %agg.result, align 8, !alias.scope !42
  ret void
}